target datalayout = "e-m:e-p270:32:32-p271:32:32-p272:64:64-i64:64-i128:128-f80:128-n8:16:32:64-S128"
target triple = "x86_64-pc-linux-gnu"

%struct.pdcp_nr_security_info_t = type { i32, i8, i8, i32, i32, i32, i32, i32 }

@pdcp_security_hash = internal global ptr null, align 8

; Function Attrs: null_pointer_is_valid sspstrong uwtable
define hidden void @set_pdcp_nr_rrc_reestablishment_request(i16 noundef zeroext %0) #0 {
  %2 = alloca i16, align 2
  %3 = alloca ptr, align 8
  store i16 %0, ptr %2, align 2
  call void @llvm.lifetime.start.p0(i64 8, ptr %3) #15
  %4 = load ptr, ptr @pdcp_security_hash, align 8
  %5 = load i16, ptr %2, align 2
  %6 = zext i16 %5 to i64
  %7 = inttoptr i64 %6 to ptr
  %8 = call ptr @wmem_map_lookup(ptr noundef %4, ptr noundef %7)
  store ptr %8, ptr %3, align 8
  %9 = load ptr, ptr %3, align 8
  %10 = icmp ne ptr %9, null
  br i1 %10, label %11, label %16

11:                                               ; preds = %1
  %12 = load ptr, ptr %3, align 8
  %13 = getelementptr inbounds nuw %struct.pdcp_nr_security_info_t, ptr %12, i32 0, i32 2
  store i8 1, ptr %13, align 1
  %14 = load ptr, ptr %3, align 8
  %15 = getelementptr inbounds nuw %struct.pdcp_nr_security_info_t, ptr %14, i32 0, i32 1
  store i8 0, ptr %15, align 4
  br label %16

16:                                               ; preds = %11, %1
  call void @llvm.lifetime.end.p0(i64 8, ptr %3) #15
  ret void
}