; Function Attrs: null_pointer_is_valid sspstrong uwtable
define hidden void @set_pdcp_nr_rrc_reestablishment_request(i16 noundef zeroext %0) local_unnamed_addr #0 {
  %2 = load ptr, ptr @pdcp_security_hash, align 8
  %3 = zext i16 %0 to i64
  %4 = inttoptr i64 %3 to ptr
  %5 = tail call ptr @wmem_map_lookup(ptr noundef %2, ptr noundef %4)
  %.not = icmp eq ptr %5, null
  br i1 %.not, label %9, label %6

6:                                                ; preds = %1
  %7 = getelementptr inbounds nuw i8, ptr %5, i64 5
  store i8 1, ptr %7, align 1
  %8 = getelementptr inbounds nuw i8, ptr %5, i64 4
  store i8 0, ptr %8, align 4
  br label %9

9:                                                ; preds = %6, %1
  ret void
}